target datalayout = "e-m:e-p270:32:32-p271:32:32-p272:64:64-i64:64-i128:128-f80:128-n8:16:32:64-S128"
target triple = "x86_64-pc-linux-gnu"

%"class.gmx::IHelpTopic" = type { ptr }
%"class.gmx::(anonymous namespace)::ModuleHelpTopic" = type { %"class.gmx::IHelpTopic", ptr, ptr }

; Function Attrs: mustprogress uwtable
define internal noundef ptr @_ZNK3gmx12_GLOBAL__N_115ModuleHelpTopic4nameEv(ptr noundef nonnull align 8 dereferenceable(24) %0) unnamed_addr #1 align 2 {
  %2 = alloca ptr, align 8
  store ptr %0, ptr %2, align 8
  %3 = load ptr, ptr %2, align 8
  %4 = getelementptr inbounds %"class.gmx::(anonymous namespace)::ModuleHelpTopic", ptr %3, i32 0, i32 1
  %5 = load ptr, ptr %4, align 8
  %6 = load ptr, ptr %5, align 8
  %7 = getelementptr inbounds ptr, ptr %6, i64 2
  %8 = load ptr, ptr %7, align 8
  %9 = call noundef ptr %8(ptr noundef nonnull align 8 dereferenceable(8) %5)
  ret ptr %9
}