; Function Attrs: mustprogress uwtable
define internal noundef ptr @_ZNK3gmx12_GLOBAL__N_115ModuleHelpTopic4nameEv(ptr nocapture noundef nonnull readonly align 8 dereferenceable(24) %0) unnamed_addr #1 align 2 {
  %2 = getelementptr inbounds i8, ptr %0, i64 8
  %3 = load ptr, ptr %2, align 8
  %4 = load ptr, ptr %3, align 8
  %5 = getelementptr inbounds i8, ptr %4, i64 16
  %6 = load ptr, ptr %5, align 8
  %7 = tail call noundef ptr %6(ptr noundef nonnull align 8 dereferenceable(8) %3)
  ret ptr %7
}